; Function Attrs: mustprogress uwtable
define dso_local noundef zeroext i1 @_Z10cmFindPathRKSt6vectorINSt7__cxx1112basic_stringIcSt11char_traitsIcESaIcEEESaIS5_EER17cmExecutionStatus(ptr noundef nonnull align 8 dereferenceable(24) %0, ptr noundef nonnull align 1 %1) local_unnamed_addr #3 personality ptr @__gxx_personality_v0 {
  %3 = alloca %class.cmFindPathCommand, align 8
  call void @_ZN17cmFindPathCommandC2ER17cmExecutionStatus(ptr noundef nonnull align 8 dereferenceable(601) %3, ptr noundef nonnull align 1 %1)
  %4 = invoke noundef zeroext i1 @_ZN17cmFindPathCommand11InitialPassERKSt6vectorINSt7__cxx1112basic_stringIcSt11char_traitsIcESaIcEEESaIS6_EE(ptr noundef nonnull align 8 dereferenceable(601) %3, ptr noundef nonnull align 8 dereferenceable(24) %0)
          to label %5 unwind label %6

5:                                                ; preds = %2
  call void @_ZN10cmFindBaseD2Ev(ptr noundef nonnull align 8 dereferenceable(600) %3) #12
  ret i1 %4

6:                                                ; preds = %2
  %7 = landingpad { ptr, i32 }
          cleanup
  call void @_ZN10cmFindBaseD2Ev(ptr noundef nonnull align 8 dereferenceable(600) %3) #12
  resume { ptr, i32 } %7
}